; Function Attrs: mustprogress uwtable
define void @_ZN2cv7quality11QualityGMSD6createERKNS_11_InputArrayE(ptr dead_on_unwind noalias writable writeonly sret(%"struct.cv::Ptr") align 8 captures(none) %0, ptr noundef nonnull align 8 dereferenceable(24) %1) local_unnamed_addr #0 align 2 personality ptr @__gxx_personality_v0 {
  %3 = alloca %"struct.cv::quality::QualityGMSD::_mat_data", align 8
  %4 = tail call noalias noundef nonnull dereferenceable(248) ptr @_Znwm(i64 noundef 248) #21
  invoke void @_ZN2cv7quality11QualityGMSD9_mat_dataC1ERKNS_11_InputArrayE(ptr noundef nonnull align 8 dereferenceable(160) %3, ptr noundef nonnull align 8 dereferenceable(24) %1)
          to label %5 unwind label %.thread

5:                                                ; preds = %2
  invoke void @_ZN2cv7quality11QualityGMSDC1ENS1_9_mat_dataE(ptr noundef nonnull align 8 dereferenceable(248) %4, ptr noundef nonnull %3)
          to label %6 unwind label %28

6:                                                ; preds = %5
  store ptr %4, ptr %0, align 8, !tbaa !34
  %7 = getelementptr inbounds nuw i8, ptr %0, i64 8
  store ptr null, ptr %7, align 8, !tbaa !39
  %8 = invoke noalias noundef nonnull dereferenceable(24) ptr @_Znwm(i64 noundef 24) #21
          to label %22 unwind label %9

9:                                                ; preds = %6
  %10 = landingpad { ptr, i32 }
          catch ptr null
  %11 = extractvalue { ptr, i32 } %10, 0
  %12 = call ptr @__cxa_begin_catch(ptr %11) #18
  %13 = load ptr, ptr %4, align 8, !tbaa !40
  %14 = getelementptr inbounds nuw i8, ptr %13, i64 8
  %15 = load ptr, ptr %14, align 8
  call void %15(ptr noundef nonnull align 8 dereferenceable(248) %4) #18
  invoke void @__cxa_rethrow() #19
          to label %21 unwind label %16

16:                                               ; preds = %9
  %17 = landingpad { ptr, i32 }
          cleanup
  invoke void @__cxa_end_catch()
          to label %30 unwind label %18

18:                                               ; preds = %16
  %19 = landingpad { ptr, i32 }
          catch ptr null
  %20 = extractvalue { ptr, i32 } %19, 0
  call void @__clang_call_terminate(ptr %20) #22
  unreachable

21:                                               ; preds = %9
  unreachable

22:                                               ; preds = %6
  %23 = getelementptr inbounds nuw i8, ptr %8, i64 8
  store i32 1, ptr %23, align 8, !tbaa !42
  %24 = getelementptr inbounds nuw i8, ptr %8, i64 12
  store i32 1, ptr %24, align 4, !tbaa !44
  store ptr getelementptr inbounds nuw inrange(-16, 40) (i8, ptr @_ZTVSt15_Sp_counted_ptrIPN2cv7quality11QualityGMSDELN9__gnu_cxx12_Lock_policyE2EE, i64 16), ptr %8, align 8, !tbaa !40
  %25 = getelementptr inbounds nuw i8, ptr %8, i64 16
  store ptr %4, ptr %25, align 8, !tbaa !45
  store ptr %8, ptr %7, align 8, !tbaa !39
  %26 = getelementptr inbounds nuw i8, ptr %3, i64 80
  call void @_ZN2cv4UMatD1Ev(ptr noundef nonnull align 8 dereferenceable(80) %26) #18
  call void @_ZN2cv4UMatD1Ev(ptr noundef nonnull align 8 dereferenceable(160) %3) #18
  ret void

.thread:                                          ; preds = %2
  %27 = landingpad { ptr, i32 }
          cleanup
  br label %32

28:                                               ; preds = %5
  %29 = landingpad { ptr, i32 }
          cleanup
  br label %30

30:                                               ; preds = %28, %16
  %.0.lpad-body = phi i1 [ true, %28 ], [ false, %16 ]
  %eh.lpad-body = phi { ptr, i32 } [ %29, %28 ], [ %17, %16 ]
  %31 = getelementptr inbounds nuw i8, ptr %3, i64 80
  call void @_ZN2cv4UMatD1Ev(ptr noundef nonnull align 8 dereferenceable(80) %31) #18
  call void @_ZN2cv4UMatD1Ev(ptr noundef nonnull align 8 dereferenceable(160) %3) #18
  br i1 %.0.lpad-body, label %32, label %33

32:                                               ; preds = %.thread, %30
  %.pn9 = phi { ptr, i32 } [ %27, %.thread ], [ %eh.lpad-body, %30 ]
  call void @_ZdlPv(ptr noundef nonnull %4) #20
  br label %33

33:                                               ; preds = %30, %32
  %.pn8 = phi { ptr, i32 } [ %eh.lpad-body, %30 ], [ %.pn9, %32 ]
  resume { ptr, i32 } %.pn8
}